target datalayout = "e-m:e-p270:32:32-p271:32:32-p272:64:64-i64:64-i128:128-f80:128-n8:16:32:64-S128"
target triple = "x86_64-pc-linux-gnu"

%struct.Aig_Cut_t_ = type { ptr, i32, i32, i32, i16, i8, i8, [0 x i32] }

; Function Attrs: nounwind uwtable
define i32 @Aig_CutMerge(ptr noundef %0, ptr noundef %1, ptr noundef %2, ptr noundef %3) #0 {
  %5 = alloca i32, align 4
  %6 = alloca ptr, align 8
  %7 = alloca ptr, align 8
  %8 = alloca ptr, align 8
  %9 = alloca ptr, align 8
  store ptr %0, ptr %6, align 8, !tbaa !10
  store ptr %1, ptr %7, align 8, !tbaa !37
  store ptr %2, ptr %8, align 8, !tbaa !37
  store ptr %3, ptr %9, align 8, !tbaa !37
  %10 = load ptr, ptr %7, align 8, !tbaa !37
  %11 = getelementptr inbounds nuw %struct.Aig_Cut_t_, ptr %10, i32 0, i32 6
  %12 = load i8, ptr %11, align 1, !tbaa !39
  %13 = sext i8 %12 to i32
  %14 = load ptr, ptr %8, align 8, !tbaa !37
  %15 = getelementptr inbounds nuw %struct.Aig_Cut_t_, ptr %14, i32 0, i32 6
  %16 = load i8, ptr %15, align 1, !tbaa !39
  %17 = sext i8 %16 to i32
  %18 = icmp slt i32 %13, %17
  br i1 %18, label %19, label %28

19:                                               ; preds = %4
  %20 = load ptr, ptr %6, align 8, !tbaa !10
  %21 = load ptr, ptr %8, align 8, !tbaa !37
  %22 = load ptr, ptr %7, align 8, !tbaa !37
  %23 = load ptr, ptr %9, align 8, !tbaa !37
  %24 = call i32 @Aig_CutMergeOrdered(ptr noundef %20, ptr noundef %21, ptr noundef %22, ptr noundef %23)
  %25 = icmp ne i32 %24, 0
  br i1 %25, label %27, label %26

26:                                               ; preds = %19
  store i32 0, ptr %5, align 4
  br label %47

27:                                               ; preds = %19
  br label %37

28:                                               ; preds = %4
  %29 = load ptr, ptr %6, align 8, !tbaa !10
  %30 = load ptr, ptr %7, align 8, !tbaa !37
  %31 = load ptr, ptr %8, align 8, !tbaa !37
  %32 = load ptr, ptr %9, align 8, !tbaa !37
  %33 = call i32 @Aig_CutMergeOrdered(ptr noundef %29, ptr noundef %30, ptr noundef %31, ptr noundef %32)
  %34 = icmp ne i32 %33, 0
  br i1 %34, label %36, label %35

35:                                               ; preds = %28
  store i32 0, ptr %5, align 4
  br label %47

36:                                               ; preds = %28
  br label %37

37:                                               ; preds = %36, %27
  %38 = load ptr, ptr %7, align 8, !tbaa !37
  %39 = getelementptr inbounds nuw %struct.Aig_Cut_t_, ptr %38, i32 0, i32 2
  %40 = load i32, ptr %39, align 4, !tbaa !61
  %41 = load ptr, ptr %8, align 8, !tbaa !37
  %42 = getelementptr inbounds nuw %struct.Aig_Cut_t_, ptr %41, i32 0, i32 2
  %43 = load i32, ptr %42, align 4, !tbaa !61
  %44 = or i32 %40, %43
  %45 = load ptr, ptr %9, align 8, !tbaa !37
  %46 = getelementptr inbounds nuw %struct.Aig_Cut_t_, ptr %45, i32 0, i32 2
  store i32 %44, ptr %46, align 4, !tbaa !61
  store i32 1, ptr %5, align 4
  br label %47

47:                                               ; preds = %37, %35, %26
  %48 = load i32, ptr %5, align 4
  ret i32 %48
}